target datalayout = "e-m:e-p270:32:32-p271:32:32-p272:64:64-i64:64-i128:128-f80:128-n8:16:32:64-S128"
target triple = "x86_64-pc-linux-gnu"

%"class.icu_77::Normalizer" = type <{ %"class.icu_77::UObject", ptr, ptr, i32, i32, ptr, i32, i32, %"class.icu_77::UnicodeString", i32, [4 x i8] }>
%"class.icu_77::UObject" = type { ptr }
%"class.icu_77::UnicodeString" = type { %"class.icu_77::Replaceable", %"union.icu_77::UnicodeString::StackBufferOrFields" }
%"class.icu_77::Replaceable" = type { %"class.icu_77::UObject" }
%"union.icu_77::UnicodeString::StackBufferOrFields" = type { %struct.anon.0, [32 x i8] }
%struct.anon.0 = type { i16, i32, i32, ptr }
%struct.anon = type { i16, [27 x i16] }

@_ZTVN6icu_7710NormalizerE = unnamed_addr constant { [5 x ptr] } { [5 x ptr] [ptr null, ptr @_ZTIN6icu_7710NormalizerE, ptr @_ZN6icu_7710NormalizerD1Ev, ptr @_ZN6icu_7710NormalizerD0Ev, ptr @_ZNK6icu_7710Normalizer17getDynamicClassIDEv] }, align 8
@_ZTVN6icu_777UObjectE = available_externally unnamed_addr constant { [5 x ptr] } { [5 x ptr] [ptr null, ptr @_ZTIN6icu_777UObjectE, ptr @_ZN6icu_777UObjectD1Ev, ptr @_ZN6icu_777UObjectD0Ev, ptr @_ZNK6icu_777UObject17getDynamicClassIDEv] }, align 8

; Function Attrs: inlinehint mustprogress nounwind uwtable
define linkonce_odr void @_ZN6icu_7711ReplaceableC2Ev(ptr noundef nonnull align 8 dereferenceable(8) %0) unnamed_addr #3 comdat align 2 {
  %2 = alloca ptr, align 8
  store ptr %0, ptr %2, align 8, !tbaa !58
  %3 = load ptr, ptr %2, align 8
  call void @_ZN6icu_777UObjectC2Ev(ptr noundef nonnull align 8 dereferenceable(8) %3) #9
  store ptr getelementptr inbounds inrange(-16, 88) ({ [13 x ptr] }, ptr @_ZTVN6icu_7711ReplaceableE, i32 0, i32 0, i32 2), ptr %3, align 8, !tbaa !12
  ret void
}

; Function Attrs: inlinehint mustprogress uwtable
define linkonce_odr void @_ZN6icu_7713UnicodeStringC2Ev(ptr noundef nonnull align 8 dereferenceable(64) %0) unnamed_addr #6 comdat align 2 {
  %2 = alloca ptr, align 8
  store ptr %0, ptr %2, align 8, !tbaa !8
  %3 = load ptr, ptr %2, align 8
  call void @_ZN6icu_7711ReplaceableC2Ev(ptr noundef nonnull align 8 dereferenceable(8) %3)
  store ptr getelementptr inbounds inrange(-16, 88) ({ [13 x ptr] }, ptr @_ZTVN6icu_7713UnicodeStringE, i32 0, i32 0, i32 2), ptr %3, align 8, !tbaa !12
  %4 = getelementptr inbounds nuw %"class.icu_77::UnicodeString", ptr %3, i32 0, i32 1
  %5 = getelementptr inbounds nuw %struct.anon, ptr %4, i32 0, i32 0
  store i16 2, ptr %5, align 8, !tbaa !32
  ret void
}

; Function Attrs: inlinehint mustprogress nounwind uwtable
define linkonce_odr void @_ZN6icu_777UObjectC2Ev(ptr noundef nonnull align 8 dereferenceable(8) %0) unnamed_addr #3 comdat align 2 {
  %2 = alloca ptr, align 8
  store ptr %0, ptr %2, align 8, !tbaa !30
  %3 = load ptr, ptr %2, align 8
  store ptr getelementptr inbounds inrange(-16, 24) ({ [5 x ptr] }, ptr @_ZTVN6icu_777UObjectE, i32 0, i32 0, i32 2), ptr %3, align 8, !tbaa !12
  ret void
}

; Function Attrs: mustprogress uwtable
define void @_ZN6icu_7710NormalizerC2ERKNS_13UnicodeStringE18UNormalizationMode(ptr noundef nonnull align 8 dereferenceable(116) %0, ptr noundef nonnull align 8 dereferenceable(64) %1, i32 noundef %2) unnamed_addr #1 align 2 personality ptr @__gxx_personality_v0 {
  %4 = alloca ptr, align 8
  %5 = alloca ptr, align 8
  %6 = alloca i32, align 4
  %7 = alloca i1, align 1
  %8 = alloca ptr, align 8
  %9 = alloca i32, align 4
  store ptr %0, ptr %4, align 8, !tbaa !3
  store ptr %1, ptr %5, align 8, !tbaa !8
  store i32 %2, ptr %6, align 4, !tbaa !10
  %10 = load ptr, ptr %4, align 8
  %11 = getelementptr inbounds i8, ptr %10, i64 0
  call void @llvm.memset.p0.i64(ptr align 8 %11, i8 0, i64 8, i1 false)
  call void @_ZN6icu_777UObjectC2Ev(ptr noundef nonnull align 8 dereferenceable(8) %10) #9
  store ptr getelementptr inbounds inrange(-16, 24) ({ [5 x ptr] }, ptr @_ZTVN6icu_7710NormalizerE, i32 0, i32 0, i32 2), ptr %10, align 8, !tbaa !12
  %12 = getelementptr inbounds nuw %"class.icu_77::Normalizer", ptr %10, i32 0, i32 1
  store ptr null, ptr %12, align 8, !tbaa !14
  %13 = getelementptr inbounds nuw %"class.icu_77::Normalizer", ptr %10, i32 0, i32 2
  store ptr null, ptr %13, align 8, !tbaa !23
  %14 = getelementptr inbounds nuw %"class.icu_77::Normalizer", ptr %10, i32 0, i32 3
  %15 = load i32, ptr %6, align 4, !tbaa !10
  store i32 %15, ptr %14, align 8, !tbaa !24
  %16 = getelementptr inbounds nuw %"class.icu_77::Normalizer", ptr %10, i32 0, i32 4
  store i32 0, ptr %16, align 4, !tbaa !25
  %17 = getelementptr inbounds nuw %"class.icu_77::Normalizer", ptr %10, i32 0, i32 5
  %18 = call noundef ptr @_ZN6icu_777UMemorynwEm(i64 noundef 96) #9
  %19 = icmp eq ptr %18, null
  store i1 false, ptr %7, align 1
  br i1 %19, label %23, label %20

20:                                               ; preds = %3
  store i1 true, ptr %7, align 1
  %21 = load ptr, ptr %5, align 8, !tbaa !8
  invoke void @_ZN6icu_7723StringCharacterIteratorC1ERKNS_13UnicodeStringE(ptr noundef nonnull align 8 dereferenceable(96) %18, ptr noundef nonnull align 8 dereferenceable(64) %21)
          to label %22 unwind label %31

22:                                               ; preds = %20
  br label %23

23:                                               ; preds = %22, %3
  %24 = phi ptr [ %18, %22 ], [ null, %3 ]
  store ptr %24, ptr %17, align 8, !tbaa !26
  %25 = getelementptr inbounds nuw %"class.icu_77::Normalizer", ptr %10, i32 0, i32 6
  store i32 0, ptr %25, align 8, !tbaa !27
  %26 = getelementptr inbounds nuw %"class.icu_77::Normalizer", ptr %10, i32 0, i32 7
  store i32 0, ptr %26, align 4, !tbaa !28
  %27 = getelementptr inbounds nuw %"class.icu_77::Normalizer", ptr %10, i32 0, i32 8
  invoke void @_ZN6icu_7713UnicodeStringC2Ev(ptr noundef nonnull align 8 dereferenceable(64) %27)
          to label %28 unwind label %38

28:                                               ; preds = %23
  %29 = getelementptr inbounds nuw %"class.icu_77::Normalizer", ptr %10, i32 0, i32 9
  store i32 0, ptr %29, align 8, !tbaa !29
  invoke void @_ZN6icu_7710Normalizer4initEv(ptr noundef nonnull align 8 dereferenceable(116) %10)
          to label %30 unwind label %42

30:                                               ; preds = %28
  ret void

31:                                               ; preds = %20
  %32 = landingpad { ptr, i32 }
          cleanup
  %33 = extractvalue { ptr, i32 } %32, 0
  store ptr %33, ptr %8, align 8
  %34 = extractvalue { ptr, i32 } %32, 1
  store i32 %34, ptr %9, align 4
  %35 = load i1, ptr %7, align 1
  br i1 %35, label %36, label %37

36:                                               ; preds = %31
  call void @_ZN6icu_777UMemorydlEPv(ptr noundef %18) #9
  br label %37

37:                                               ; preds = %36, %31
  br label %46

38:                                               ; preds = %23
  %39 = landingpad { ptr, i32 }
          cleanup
  %40 = extractvalue { ptr, i32 } %39, 0
  store ptr %40, ptr %8, align 8
  %41 = extractvalue { ptr, i32 } %39, 1
  store i32 %41, ptr %9, align 4
  br label %46

42:                                               ; preds = %28
  %43 = landingpad { ptr, i32 }
          cleanup
  %44 = extractvalue { ptr, i32 } %43, 0
  store ptr %44, ptr %8, align 8
  %45 = extractvalue { ptr, i32 } %43, 1
  store i32 %45, ptr %9, align 4
  call void @_ZN6icu_7713UnicodeStringD1Ev(ptr noundef nonnull align 8 dereferenceable(64) %27) #9
  br label %46

46:                                               ; preds = %42, %38, %37
  call void @_ZN6icu_777UObjectD2Ev(ptr noundef nonnull align 8 dereferenceable(8) %10) #9
  br label %47

47:                                               ; preds = %46
  %48 = load ptr, ptr %8, align 8
  %49 = load i32, ptr %9, align 4
  %50 = insertvalue { ptr, i32 } poison, ptr %48, 0
  %51 = insertvalue { ptr, i32 } %50, i32 %49, 1
  resume { ptr, i32 } %51
}