; Function Attrs: mustprogress uwtable
define void @_ZN6icu_7710NormalizerC2ERKNS_13UnicodeStringE18UNormalizationMode(ptr noundef nonnull align 8 dereferenceable(116) initializes((0, 32)) %0, ptr noundef nonnull align 8 dereferenceable(64) %1, i32 noundef %2) unnamed_addr #1 align 2 personality ptr @__gxx_personality_v0 {
  store ptr getelementptr inbounds nuw inrange(-16, 24) (i8, ptr @_ZTVN6icu_7710NormalizerE, i64 16), ptr %0, align 8, !tbaa !3
  %4 = getelementptr inbounds nuw i8, ptr %0, i64 8
  %5 = getelementptr inbounds nuw i8, ptr %0, i64 24
  tail call void @llvm.memset.p0.i64(ptr noundef nonnull align 8 dereferenceable(16) %4, i8 0, i64 16, i1 false)
  store i32 %2, ptr %5, align 8, !tbaa !6
  %6 = getelementptr inbounds nuw i8, ptr %0, i64 28
  store i32 0, ptr %6, align 4, !tbaa !18
  %7 = getelementptr inbounds nuw i8, ptr %0, i64 32
  %8 = tail call noundef ptr @_ZN6icu_777UMemorynwEm(i64 noundef 96) #10
  %9 = icmp eq ptr %8, null
  br i1 %9, label %11, label %10

10:                                               ; preds = %3
  invoke void @_ZN6icu_7723StringCharacterIteratorC1ERKNS_13UnicodeStringE(ptr noundef nonnull align 8 dereferenceable(96) %8, ptr noundef nonnull align 8 dereferenceable(64) %1)
          to label %11 unwind label %18

11:                                               ; preds = %3, %10
  store ptr %8, ptr %7, align 8, !tbaa !19
  %12 = getelementptr inbounds nuw i8, ptr %0, i64 40
  store i32 0, ptr %12, align 8, !tbaa !20
  %13 = getelementptr inbounds nuw i8, ptr %0, i64 44
  store i32 0, ptr %13, align 4, !tbaa !21
  %14 = getelementptr inbounds nuw i8, ptr %0, i64 48
  store ptr getelementptr inbounds nuw inrange(-16, 88) (i8, ptr @_ZTVN6icu_7713UnicodeStringE, i64 16), ptr %14, align 8, !tbaa !3
  %15 = getelementptr inbounds nuw i8, ptr %0, i64 56
  store i16 2, ptr %15, align 8, !tbaa !22
  %16 = getelementptr inbounds nuw i8, ptr %0, i64 112
  store i32 0, ptr %16, align 8, !tbaa !23
  invoke void @_ZN6icu_7710Normalizer4initEv(ptr noundef nonnull align 8 dereferenceable(116) %0)
          to label %17 unwind label %20

17:                                               ; preds = %11
  ret void

18:                                               ; preds = %10
  %19 = landingpad { ptr, i32 }
          cleanup
  tail call void @_ZN6icu_777UMemorydlEPv(ptr noundef nonnull %8) #10
  br label %22

20:                                               ; preds = %11
  %21 = landingpad { ptr, i32 }
          cleanup
  tail call void @_ZN6icu_7713UnicodeStringD1Ev(ptr noundef nonnull align 8 dereferenceable(64) %14) #10
  br label %22

22:                                               ; preds = %18, %20
  %.pn = phi { ptr, i32 } [ %21, %20 ], [ %19, %18 ]
  tail call void @_ZN6icu_777UObjectD2Ev(ptr noundef nonnull align 8 dereferenceable(8) %0) #10
  resume { ptr, i32 } %.pn
}